target datalayout = "e-m:e-p270:32:32-p271:32:32-p272:64:64-i64:64-i128:128-f80:128-n8:16:32:64-S128"
target triple = "x86_64-pc-linux-gnu"

%struct.lean_string_object = type { %struct.lean_object, i64, i64, i64, [0 x i8] }
%struct.lean_object = type { i32, i32 }
%"struct.lean::mpz_object" = type { %struct.lean_object, %"class.lean::mpz" }
%"class.lean::mpz" = type { [1 x %struct.__mpz_struct] }
%struct.__mpz_struct = type { i32, i32, ptr }
%struct.lean_array_object = type { %struct.lean_object, i64, i64, [0 x ptr] }
%struct.lean_sarray_object = type { %struct.lean_object, i64, i64, [0 x i8] }

; Function Attrs: inlinehint mustprogress nounwind uwtable
define internal noundef ptr @_ZL14lean_to_stringP11lean_object(ptr noundef %0) #9 {
  %2 = alloca ptr, align 8
  store ptr %0, ptr %2, align 8, !tbaa !3
  %3 = load ptr, ptr %2, align 8, !tbaa !3
  ret ptr %3
}

; Function Attrs: inlinehint mustprogress nounwind uwtable
define internal noundef ptr @_ZL14lean_to_sarrayP11lean_object(ptr noundef %0) #9 {
  %2 = alloca ptr, align 8
  store ptr %0, ptr %2, align 8, !tbaa !3
  %3 = load ptr, ptr %2, align 8, !tbaa !3
  ret ptr %3
}

; Function Attrs: inlinehint mustprogress nounwind uwtable
define internal noundef i32 @_ZL14lean_ptr_otherP11lean_object(ptr noundef %0) #9 {
  %2 = alloca ptr, align 8
  store ptr %0, ptr %2, align 8, !tbaa !3
  %3 = load ptr, ptr %2, align 8, !tbaa !3
  %4 = getelementptr inbounds nuw %struct.lean_object, ptr %3, i32 0, i32 1
  %5 = load i32, ptr %4, align 4
  %6 = lshr i32 %5, 16
  %7 = and i32 %6, 255
  ret i32 %7
}

; Function Attrs: inlinehint mustprogress nounwind uwtable
define internal noundef ptr @_ZL13lean_to_arrayP11lean_object(ptr noundef %0) #9 {
  %2 = alloca ptr, align 8
  store ptr %0, ptr %2, align 8, !tbaa !3
  %3 = load ptr, ptr %2, align 8, !tbaa !3
  ret ptr %3
}

; Function Attrs: inlinehint mustprogress uwtable
define internal noundef i64 @_ZL20lean_string_capacityP11lean_object(ptr noundef %0) #3 {
  %2 = alloca ptr, align 8
  store ptr %0, ptr %2, align 8, !tbaa !3
  %3 = load ptr, ptr %2, align 8, !tbaa !3
  %4 = call noundef ptr @_ZL14lean_to_stringP11lean_object(ptr noundef %3)
  %5 = getelementptr inbounds nuw %struct.lean_string_object, ptr %4, i32 0, i32 2
  %6 = load i64, ptr %5, align 8, !tbaa !7
  ret i64 %6
}

; Function Attrs: inlinehint mustprogress uwtable
define internal noundef i64 @_ZL20lean_sarray_capacityP11lean_object(ptr noundef %0) #3 {
  %2 = alloca ptr, align 8
  store ptr %0, ptr %2, align 8, !tbaa !3
  %3 = load ptr, ptr %2, align 8, !tbaa !3
  %4 = call noundef ptr @_ZL14lean_to_sarrayP11lean_object(ptr noundef %3)
  %5 = getelementptr inbounds nuw %struct.lean_sarray_object, ptr %4, i32 0, i32 2
  %6 = load i64, ptr %5, align 8, !tbaa !7
  ret i64 %6
}

; Function Attrs: inlinehint mustprogress nounwind uwtable
define internal noundef i32 @_ZL21lean_sarray_elem_sizeP11lean_object(ptr noundef %0) #9 {
  %2 = alloca ptr, align 8
  store ptr %0, ptr %2, align 8, !tbaa !3
  %3 = load ptr, ptr %2, align 8, !tbaa !3
  %4 = call noundef i32 @_ZL14lean_ptr_otherP11lean_object(ptr noundef %3)
  ret i32 %4
}

; Function Attrs: inlinehint mustprogress uwtable
define internal noundef i64 @_ZL19lean_array_capacityP11lean_object(ptr noundef %0) #3 {
  %2 = alloca ptr, align 8
  store ptr %0, ptr %2, align 8, !tbaa !3
  %3 = load ptr, ptr %2, align 8, !tbaa !3
  %4 = call noundef ptr @_ZL13lean_to_arrayP11lean_object(ptr noundef %3)
  %5 = getelementptr inbounds nuw %struct.lean_array_object, ptr %4, i32 0, i32 2
  %6 = load i64, ptr %5, align 8, !tbaa !7
  ret i64 %6
}

; Function Attrs: inlinehint mustprogress nounwind uwtable
define internal void @_ZL22lean_free_small_objectP11lean_object(ptr noundef %0) #9 {
  %2 = alloca ptr, align 8
  store ptr %0, ptr %2, align 8, !tbaa !3
  %3 = load ptr, ptr %2, align 8, !tbaa !3
  call void @mi_free(ptr noundef %3) #23
  ret void
}

; Function Attrs: inlinehint mustprogress nounwind uwtable
define linkonce_odr hidden noundef ptr @_ZN4lean6to_mpzEP11lean_object(ptr noundef %0) #9 comdat {
  %2 = alloca ptr, align 8
  store ptr %0, ptr %2, align 8, !tbaa !3
  %3 = load ptr, ptr %2, align 8, !tbaa !3
  ret ptr %3
}

; Function Attrs: inlinehint mustprogress uwtable
define internal noundef i64 @_ZL21lean_string_byte_sizeP11lean_object(ptr noundef %0) #3 {
  %2 = alloca ptr, align 8
  store ptr %0, ptr %2, align 8, !tbaa !3
  %3 = load ptr, ptr %2, align 8, !tbaa !3
  %4 = call noundef i64 @_ZL20lean_string_capacityP11lean_object(ptr noundef %3)
  %5 = add i64 32, %4
  ret i64 %5
}

; Function Attrs: inlinehint mustprogress uwtable
define internal noundef i64 @_ZL21lean_sarray_byte_sizeP11lean_object(ptr noundef %0) #3 {
  %2 = alloca ptr, align 8
  store ptr %0, ptr %2, align 8, !tbaa !3
  %3 = load ptr, ptr %2, align 8, !tbaa !3
  %4 = call noundef i32 @_ZL21lean_sarray_elem_sizeP11lean_object(ptr noundef %3)
  %5 = zext i32 %4 to i64
  %6 = load ptr, ptr %2, align 8, !tbaa !3
  %7 = call noundef i64 @_ZL20lean_sarray_capacityP11lean_object(ptr noundef %6)
  %8 = mul i64 %5, %7
  %9 = add i64 24, %8
  ret i64 %9
}

; Function Attrs: inlinehint mustprogress nounwind uwtable
define internal void @_ZN4leanL12lean_deallocEP11lean_objectm(ptr noundef %0, i64 noundef %1) #9 {
  %3 = alloca ptr, align 8
  %4 = alloca i64, align 8
  store ptr %0, ptr %3, align 8, !tbaa !3
  store i64 %1, ptr %4, align 8, !tbaa !7
  %5 = load ptr, ptr %3, align 8, !tbaa !3
  %6 = load i64, ptr %4, align 8, !tbaa !7
  call void @mi_free_size(ptr noundef %5, i64 noundef %6) #23
  ret void
}

; Function Attrs: inlinehint mustprogress uwtable
define internal noundef i64 @_ZL20lean_array_byte_sizeP11lean_object(ptr noundef %0) #3 {
  %2 = alloca ptr, align 8
  store ptr %0, ptr %2, align 8, !tbaa !3
  %3 = load ptr, ptr %2, align 8, !tbaa !3
  %4 = call noundef i64 @_ZL19lean_array_capacityP11lean_object(ptr noundef %3)
  %5 = mul i64 8, %4
  %6 = add i64 24, %5
  ret i64 %6
}

; Function Attrs: inlinehint mustprogress nounwind uwtable
define internal noundef zeroext i8 @_ZL12lean_ptr_tagP11lean_object(ptr noundef %0) #9 {
  %2 = alloca ptr, align 8
  store ptr %0, ptr %2, align 8, !tbaa !3
  %3 = load ptr, ptr %2, align 8, !tbaa !3
  %4 = getelementptr inbounds nuw %struct.lean_object, ptr %3, i32 0, i32 1
  %5 = load i32, ptr %4, align 4
  %6 = lshr i32 %5, 24
  %7 = trunc i32 %6 to i8
  ret i8 %7
}

; Function Attrs: mustprogress uwtable
define void @lean_free_object(ptr noundef %0) #0 {
  %2 = alloca ptr, align 8
  store ptr %0, ptr %2, align 8, !tbaa !3
  %3 = load ptr, ptr %2, align 8, !tbaa !3
  %4 = call noundef zeroext i8 @_ZL12lean_ptr_tagP11lean_object(ptr noundef %3)
  %5 = zext i8 %4 to i32
  switch i32 %5, label %23 [
    i32 246, label %6
    i32 248, label %10
    i32 249, label %14
    i32 250, label %18
  ]

6:                                                ; preds = %1
  %7 = load ptr, ptr %2, align 8, !tbaa !3
  %8 = load ptr, ptr %2, align 8, !tbaa !3
  %9 = call noundef i64 @_ZL20lean_array_byte_sizeP11lean_object(ptr noundef %8)
  call void @_ZN4leanL12lean_deallocEP11lean_objectm(ptr noundef %7, i64 noundef %9)
  br label %25

10:                                               ; preds = %1
  %11 = load ptr, ptr %2, align 8, !tbaa !3
  %12 = load ptr, ptr %2, align 8, !tbaa !3
  %13 = call noundef i64 @_ZL21lean_sarray_byte_sizeP11lean_object(ptr noundef %12)
  call void @_ZN4leanL12lean_deallocEP11lean_objectm(ptr noundef %11, i64 noundef %13)
  br label %25

14:                                               ; preds = %1
  %15 = load ptr, ptr %2, align 8, !tbaa !3
  %16 = load ptr, ptr %2, align 8, !tbaa !3
  %17 = call noundef i64 @_ZL21lean_string_byte_sizeP11lean_object(ptr noundef %16)
  call void @_ZN4leanL12lean_deallocEP11lean_objectm(ptr noundef %15, i64 noundef %17)
  br label %25

18:                                               ; preds = %1
  %19 = load ptr, ptr %2, align 8, !tbaa !3
  %20 = call noundef ptr @_ZN4lean6to_mpzEP11lean_object(ptr noundef %19)
  %21 = getelementptr inbounds nuw %"struct.lean::mpz_object", ptr %20, i32 0, i32 1
  call void @_ZN4lean3mpzD1Ev(ptr noundef nonnull align 8 dereferenceable(16) %21) #23
  %22 = load ptr, ptr %2, align 8, !tbaa !3
  call void @_ZL22lean_free_small_objectP11lean_object(ptr noundef %22)
  br label %25

23:                                               ; preds = %1
  %24 = load ptr, ptr %2, align 8, !tbaa !3
  call void @_ZL22lean_free_small_objectP11lean_object(ptr noundef %24)
  br label %25

25:                                               ; preds = %23, %18, %14, %10, %6
  ret void
}