; Function Attrs: mustprogress nounwind uwtable
define void @lean_free_object(ptr noundef %0) local_unnamed_addr #11 {
  %2 = getelementptr i8, ptr %0, i64 4
  %.val = load i32, ptr %2, align 4
  %3 = lshr i32 %.val, 24
  %4 = trunc nuw i32 %3 to i8
  switch i8 %4, label %21 [
    i8 -10, label %5
    i8 -8, label %9
    i8 -7, label %16
    i8 -6, label %19
  ]

5:                                                ; preds = %1
  %6 = getelementptr i8, ptr %0, i64 16
  %.val10 = load i64, ptr %6, align 8, !tbaa !30
  %7 = shl i64 %.val10, 3
  %8 = add i64 %7, 24
  tail call void @mi_free_size(ptr noundef nonnull %0, i64 noundef %8) #40
  br label %22

9:                                                ; preds = %1
  %10 = getelementptr i8, ptr %0, i64 16
  %.val12 = load i64, ptr %10, align 8, !tbaa !30
  %11 = lshr i32 %.val, 16
  %12 = and i32 %11, 255
  %13 = zext nneg i32 %12 to i64
  %14 = mul i64 %.val12, %13
  %15 = add i64 %14, 24
  tail call void @mi_free_size(ptr noundef nonnull %0, i64 noundef %15) #40
  br label %22

16:                                               ; preds = %1
  %17 = getelementptr i8, ptr %0, i64 16
  %.val13 = load i64, ptr %17, align 8, !tbaa !30
  %18 = add i64 %.val13, 32
  tail call void @mi_free_size(ptr noundef nonnull %0, i64 noundef %18) #40
  br label %22

19:                                               ; preds = %1
  %20 = getelementptr inbounds nuw i8, ptr %0, i64 8
  tail call void @_ZN4lean3mpzD1Ev(ptr noundef nonnull align 8 dereferenceable(16) %20) #40
  tail call void @mi_free(ptr noundef nonnull %0) #40
  br label %22

21:                                               ; preds = %1
  tail call void @mi_free(ptr noundef nonnull %0) #40
  br label %22

22:                                               ; preds = %21, %19, %16, %9, %5
  ret void
}